; Function Attrs: mustprogress nounwind uwtable
define hidden noundef ptr @_ZNK6Method24name_and_sig_as_C_stringEPci(ptr nocapture noundef nonnull readonly align 8 dereferenceable(88) %0, ptr noundef returned %1, i32 noundef %2) local_unnamed_addr #0 align 2 {
  %4 = getelementptr inbounds i8, ptr %0, i64 8
  %5 = load ptr, ptr %4, align 8
  %6 = getelementptr inbounds i8, ptr %5, i64 8
  %7 = load ptr, ptr %6, align 8
  %8 = getelementptr inbounds i8, ptr %7, i64 24
  %9 = load ptr, ptr %8, align 8
  %10 = getelementptr inbounds i8, ptr %5, i64 36
  %11 = load i16, ptr %10, align 4
  %12 = getelementptr inbounds i8, ptr %7, i64 72
  %13 = zext i16 %11 to i64
  %14 = getelementptr inbounds i64, ptr %12, i64 %13
  %15 = load ptr, ptr %14, align 8
  %16 = getelementptr inbounds i8, ptr %5, i64 38
  %17 = load i16, ptr %16, align 2
  %18 = zext i16 %17 to i64
  %19 = getelementptr inbounds i64, ptr %12, i64 %18
  %20 = load ptr, ptr %19, align 8
  %21 = getelementptr inbounds i8, ptr %9, i64 24
  %22 = load ptr, ptr %21, align 8
  %23 = tail call noundef ptr @_ZNK6Symbol22as_klass_external_nameEPci(ptr noundef nonnull align 4 dereferenceable(8) %22, ptr noundef %1, i32 noundef %2) #23
  %24 = tail call i64 @strlen(ptr noundef nonnull dereferenceable(1) %1) #24
  %25 = trunc i64 %24 to i32
  %26 = add nsw i32 %2, -1
  %27 = icmp sgt i32 %26, %25
  br i1 %27, label %28, label %_ZN6Method24name_and_sig_as_C_stringEP5KlassP6SymbolS3_Pci.exit

28:                                               ; preds = %3
  %29 = add nsw i32 %25, 1
  %sext.i = shl i64 %24, 32
  %30 = ashr exact i64 %sext.i, 32
  %31 = getelementptr inbounds i8, ptr %1, i64 %30
  store i8 46, ptr %31, align 1
  %32 = sext i32 %29 to i64
  %33 = getelementptr inbounds i8, ptr %1, i64 %32
  %34 = sub nsw i32 %2, %29
  %35 = tail call noundef ptr @_ZNK6Symbol11as_C_stringEPci(ptr noundef nonnull align 4 dereferenceable(8) %15, ptr noundef %33, i32 noundef %34) #23
  %36 = tail call i64 @strlen(ptr noundef nonnull dereferenceable(1) %1) #24
  %37 = trunc i64 %36 to i32
  %sext20.i = shl i64 %36, 32
  %38 = ashr exact i64 %sext20.i, 32
  %39 = getelementptr inbounds i8, ptr %1, i64 %38
  %40 = sub nsw i32 %2, %37
  %41 = tail call noundef ptr @_ZNK6Symbol11as_C_stringEPci(ptr noundef nonnull align 4 dereferenceable(8) %20, ptr noundef %39, i32 noundef %40) #23
  br label %_ZN6Method24name_and_sig_as_C_stringEP5KlassP6SymbolS3_Pci.exit

_ZN6Method24name_and_sig_as_C_stringEP5KlassP6SymbolS3_Pci.exit: ; preds = %3, %28
  ret ptr %1
}